#include <math.h>
#include <stdio.h>
#include <stdlib.h>
#include <string.h>

void main()
{
	char a[10000],b[1000][1000];
	int m,j=1,i=0,k=0,x,y;
	gets(a);
	for(i=0;i<strlen(a);i++)
	   {
	   	 if(a[i]==' ')j++;
	   }
	i=0;
	for(m=0;m<j;m++)
	{
	   for(k=0;i<strlen(a);i++)
	   {
	   	 if(a[i]!=' ')
	   	   {
	   	   	 b[m][k]=a[i];
	   	   	 k++;
	   	   }
	   	 if(a[i]==' ')break;
	   }
	   i=i+1;
	}
	for(m=j-1;m>0;m--)
	{
		{
			for(x=0;b[m][x]!=0;x++)
		    printf("%c",b[m][x]);
		}
		printf(" ");
	}
	for(y=0;b[0][y]!=0;y++)
	 printf("%c",b[0][y]);
	
	
}
	